; Function Attrs: mustprogress uwtable
define void @_ZN5Ipopt12SumSymMatrix7SetTermEidRKNS_9SymMatrixE(ptr noundef nonnull readonly align 8 captures(none) dereferenceable(136) %0, i32 noundef %1, double noundef %2, ptr noundef nonnull align 8 dereferenceable(80) %3) local_unnamed_addr #0 align 2 {
  %5 = getelementptr inbounds nuw i8, ptr %0, i64 80
  %6 = sext i32 %1 to i64
  %7 = load ptr, ptr %5, align 8, !tbaa !37
  %8 = getelementptr inbounds nuw double, ptr %7, i64 %6
  store double %2, ptr %8, align 8, !tbaa !41
  %9 = getelementptr inbounds nuw i8, ptr %0, i64 104
  %10 = load ptr, ptr %9, align 8, !tbaa !46
  %11 = getelementptr inbounds nuw %"class.Ipopt::SmartPtr.15", ptr %10, i64 %6
  %12 = getelementptr inbounds nuw i8, ptr %3, i64 8
  %13 = load i32, ptr %12, align 8, !tbaa !3
  %14 = add nsw i32 %13, 1
  store i32 %14, ptr %12, align 8, !tbaa !3
  %15 = load ptr, ptr %11, align 8, !tbaa !49
  %.not.i.i.i = icmp eq ptr %15, null
  br i1 %.not.i.i.i, label %_ZN5Ipopt8SmartPtrIKNS_9SymMatrixEEaSEPS2_.exit, label %16

16:                                               ; preds = %4
  %17 = getelementptr inbounds nuw i8, ptr %15, i64 8
  %18 = load i32, ptr %17, align 8, !tbaa !3
  %19 = add nsw i32 %18, -1
  store i32 %19, ptr %17, align 8, !tbaa !3
  %20 = icmp eq i32 %19, 0
  br i1 %20, label %21, label %_ZN5Ipopt8SmartPtrIKNS_9SymMatrixEEaSEPS2_.exit

21:                                               ; preds = %16
  %22 = load ptr, ptr %15, align 8, !tbaa !8
  %23 = getelementptr inbounds nuw i8, ptr %22, i64 8
  %24 = load ptr, ptr %23, align 8
  tail call void %24(ptr noundef nonnull align 8 dereferenceable(80) %15) #20
  br label %_ZN5Ipopt8SmartPtrIKNS_9SymMatrixEEaSEPS2_.exit

_ZN5Ipopt8SmartPtrIKNS_9SymMatrixEEaSEPS2_.exit:  ; preds = %4, %16, %21
  store ptr %3, ptr %11, align 8, !tbaa !49
  ret void
}